target datalayout = "e-m:e-p270:32:32-p271:32:32-p272:64:64-i64:64-i128:128-f80:128-n8:16:32:64-S128"
target triple = "x86_64-pc-linux-gnu"

%struct.gie_ctx = type { [10001 x i8], [10001 x i8], [10001 x i8], ptr, %union.PJ_COORD, %union.PJ_COORD, %union.PJ_COORD, i32, i32, i32, i32, i32, i32, i32, i32, i32, i32, i32, i32, i32, i64, i64, i64, double, i32, i32, i32, ptr, ptr }
%union.PJ_COORD = type { [4 x double] }

@_ZL1T = internal global %struct.gie_ctx zeroinitializer, align 8

; Function Attrs: mustprogress nounwind uwtable
define internal noundef ptr @_ZL6columnPKci(ptr noundef %0, i32 noundef %1) #0 {
  %3 = alloca ptr, align 8
  %4 = alloca ptr, align 8
  %5 = alloca i32, align 4
  %6 = alloca i32, align 4
  store ptr %0, ptr %4, align 8
  store i32 %1, ptr %5, align 4
  %7 = load i32, ptr %5, align 4
  %8 = icmp sle i32 %7, 0
  br i1 %8, label %9, label %11

9:                                                ; preds = %2
  %10 = load ptr, ptr %4, align 8
  store ptr %10, ptr %3, align 8
  br label %56

11:                                               ; preds = %2
  store i32 0, ptr %6, align 4
  br label %12

12:                                               ; preds = %51, %11
  %13 = load i32, ptr %6, align 4
  %14 = load i32, ptr %5, align 4
  %15 = icmp slt i32 %13, %14
  br i1 %15, label %16, label %54

16:                                               ; preds = %12
  br label %17

17:                                               ; preds = %23, %16
  %18 = load ptr, ptr %4, align 8
  %19 = load i8, ptr %18, align 1
  %20 = sext i8 %19 to i32
  %21 = call i32 @isspace(i32 noundef %20) #14
  %22 = icmp ne i32 %21, 0
  br i1 %22, label %23, label %26

23:                                               ; preds = %17
  %24 = load ptr, ptr %4, align 8
  %25 = getelementptr inbounds i8, ptr %24, i32 1
  store ptr %25, ptr %4, align 8
  br label %17, !llvm.loop !31

26:                                               ; preds = %17
  %27 = load i32, ptr %6, align 4
  %28 = load i32, ptr %5, align 4
  %29 = sub nsw i32 %28, 1
  %30 = icmp eq i32 %27, %29
  br i1 %30, label %31, label %32

31:                                               ; preds = %26
  br label %54

32:                                               ; preds = %26
  br label %33

33:                                               ; preds = %47, %32
  %34 = load ptr, ptr %4, align 8
  %35 = load i8, ptr %34, align 1
  %36 = sext i8 %35 to i32
  %37 = icmp ne i32 0, %36
  br i1 %37, label %38, label %45

38:                                               ; preds = %33
  %39 = load ptr, ptr %4, align 8
  %40 = load i8, ptr %39, align 1
  %41 = sext i8 %40 to i32
  %42 = call i32 @isspace(i32 noundef %41) #14
  %43 = icmp ne i32 %42, 0
  %44 = xor i1 %43, true
  br label %45

45:                                               ; preds = %38, %33
  %46 = phi i1 [ false, %33 ], [ %44, %38 ]
  br i1 %46, label %47, label %50

47:                                               ; preds = %45
  %48 = load ptr, ptr %4, align 8
  %49 = getelementptr inbounds i8, ptr %48, i32 1
  store ptr %49, ptr %4, align 8
  br label %33, !llvm.loop !32

50:                                               ; preds = %45
  br label %51

51:                                               ; preds = %50
  %52 = load i32, ptr %6, align 4
  %53 = add nsw i32 %52, 1
  store i32 %53, ptr %6, align 4
  br label %12, !llvm.loop !33

54:                                               ; preds = %31, %12
  %55 = load ptr, ptr %4, align 8
  store ptr %55, ptr %3, align 8
  br label %56

56:                                               ; preds = %54, %9
  %57 = load ptr, ptr %3, align 8
  ret ptr %57
}

; Function Attrs: mustprogress uwtable
define internal noundef i32 @_ZL6ignorePKc(ptr noundef %0) #1 {
  %2 = alloca ptr, align 8
  store ptr %0, ptr %2, align 8
  %3 = load ptr, ptr %2, align 8
  %4 = call noundef ptr @_ZL6columnPKci(ptr noundef %3, i32 noundef 1)
  %5 = call noundef i32 @_ZL20errno_from_err_constPKc(ptr noundef %4)
  store i32 %5, ptr getelementptr inbounds (%struct.gie_ctx, ptr @_ZL1T, i32 0, i32 25), align 4
  ret i32 0
}