; Function Attrs: mustprogress norecurse uwtable
define internal fastcc void @_ZL6ignorePKc(ptr noundef %0) unnamed_addr #10 {
.preheader19.i:
  br label %1

1:                                                ; preds = %1, %.preheader19.i
  %.1.i = phi ptr [ %5, %1 ], [ %0, %.preheader19.i ]
  %2 = load i8, ptr %.1.i, align 1
  %3 = sext i8 %2 to i32
  %4 = tail call i32 @isspace(i32 noundef %3) #27
  %.not.i = icmp eq i32 %4, 0
  %5 = getelementptr inbounds i8, ptr %.1.i, i64 1
  br i1 %.not.i, label %_ZL6columnPKci.exit, label %1, !llvm.loop !24

_ZL6columnPKci.exit:                              ; preds = %1
  %6 = tail call fastcc noundef i32 @_ZL20errno_from_err_constPKc(ptr noundef nonnull %.1.i)
  store i32 %6, ptr getelementptr inbounds (%struct.gie_ctx, ptr @_ZL1T, i64 0, i32 25), align 4
  ret void
}